; Function Attrs: mustprogress uwtable
define dso_local noundef nonnull ptr @_Z25CustomLayer_layer_creatorPv(ptr readnone captures(none) %0) #3 personality ptr @__gxx_personality_v0 {
  %2 = tail call noalias noundef nonnull dereferenceable(224) ptr @_Znwm(i64 noundef 224) #27
  invoke void @_ZN4ncnn5LayerC2Ev(ptr noundef nonnull align 8 dereferenceable(224) %2)
          to label %.noexc unwind label %6

.noexc:                                           ; preds = %1
  store ptr getelementptr inbounds nuw inrange(-16, 80) (i8, ptr @_ZTV11CustomLayer, i64 16), ptr %2, align 8, !tbaa !20
  %3 = getelementptr inbounds nuw i8, ptr %2, i64 208
  invoke void @_ZN4ncnn9ParamDictC1Ev(ptr noundef nonnull align 8 dereferenceable(16) %3)
          to label %_ZN11CustomLayerC2Ev.exit unwind label %4

4:                                                ; preds = %.noexc
  %5 = landingpad { ptr, i32 }
          cleanup
  tail call void @_ZN4ncnn5LayerD2Ev(ptr noundef nonnull align 8 dereferenceable(224) %2) #24
  br label %.body

_ZN11CustomLayerC2Ev.exit:                        ; preds = %.noexc
  ret ptr %2

6:                                                ; preds = %1
  %7 = landingpad { ptr, i32 }
          cleanup
  br label %.body

.body:                                            ; preds = %4, %6
  %eh.lpad-body = phi { ptr, i32 } [ %7, %6 ], [ %5, %4 ]
  tail call void @_ZdlPv(ptr noundef nonnull %2) #25
  resume { ptr, i32 } %eh.lpad-body
}